; Function Attrs: nofree norecurse nosync nounwind memory(argmem: readwrite) uwtable
define void @copy_vector(i32 noundef %0, ptr noundef readonly captures(none) %1, ptr noundef writeonly captures(none) %2) local_unnamed_addr #3 {
  %4 = icmp sgt i32 %0, 0
  br i1 %4, label %.lr.ph.preheader, label %._crit_edge

.lr.ph.preheader:                                 ; preds = %3
  %wide.trip.count = zext nneg i32 %0 to i64
  br label %.lr.ph

.lr.ph:                                           ; preds = %.lr.ph.preheader, %.lr.ph
  %indvars.iv = phi i64 [ 0, %.lr.ph.preheader ], [ %indvars.iv.next, %.lr.ph ]
  %5 = getelementptr inbounds nuw double, ptr %1, i64 %indvars.iv
  %6 = load double, ptr %5, align 8, !tbaa !10
  %7 = getelementptr inbounds nuw double, ptr %2, i64 %indvars.iv
  store double %6, ptr %7, align 8, !tbaa !10
  %indvars.iv.next = add nuw nsw i64 %indvars.iv, 1
  %exitcond.not = icmp eq i64 %indvars.iv.next, %wide.trip.count
  br i1 %exitcond.not, label %._crit_edge, label %.lr.ph, !llvm.loop !25

._crit_edge:                                      ; preds = %.lr.ph, %3
  ret void
}